target datalayout = "e-m:e-p270:32:32-p271:32:32-p272:64:64-i64:64-i128:128-f80:128-n8:16:32:64-S128"
target triple = "x86_64-pc-linux-gnu"

%struct._psqlSettings = type { ptr, i32, ptr, i8, ptr, ptr, %struct.printQueryOpt, ptr, ptr, ptr, i8, i8, i32, i32, ptr, ptr, i8, [4 x ptr], i8, i32, ptr, i8, i32, ptr, ptr, i64, i64, i8, ptr, ptr, ptr, i8, i8, i8, i8, i8, i8, i8, i32, i32, i32, i32, i32, i32, i32, i32, ptr, ptr, ptr, i32, i8, i32 }
%struct.printQueryOpt = type { %struct.printTableOpt, ptr, ptr, ptr, i8, ptr, i32 }
%struct.printTableOpt = type { i32, i16, i32, i32, i16, i16, i32, i8, i8, i8, i8, i64, ptr, %struct.separator, %struct.separator, [2 x i8], i8, ptr, i32, i32, i32, i32, i32, i32 }
%struct.separator = type { ptr, i8 }

@pset = external global %struct._psqlSettings, align 8
@.str.184 = private unnamed_addr constant [48 x i8] c"You are currently not connected to a database.\0A\00", align 1
@.str.185 = private unnamed_addr constant [79 x i8] c"You are connected to database \22%s\22 as user \22%s\22 on address \22%s\22 at port \22%s\22.\0A\00", align 1
@.str.186 = private unnamed_addr constant [82 x i8] c"You are connected to database \22%s\22 as user \22%s\22 via socket in \22%s\22 at port \22%s\22.\0A\00", align 1
@.str.187 = private unnamed_addr constant [91 x i8] c"You are connected to database \22%s\22 as user \22%s\22 on host \22%s\22 (address \22%s\22) at port \22%s\22.\0A\00", align 1
@.str.188 = private unnamed_addr constant [76 x i8] c"You are connected to database \22%s\22 as user \22%s\22 on host \22%s\22 at port \22%s\22.\0A\00", align 1
@.str.312 = private unnamed_addr constant [29 x i8] c"GSSAPI-encrypted connection\0A\00", align 1

; Function Attrs: nounwind uwtable
define internal void @printGSSInfo() #0 {
  %1 = load ptr, ptr @pset, align 8
  %2 = call i32 @PQgssEncInUse(ptr noundef %1)
  %3 = icmp ne i32 %2, 0
  br i1 %3, label %5, label %4

4:                                                ; preds = %0
  br label %7

5:                                                ; preds = %0
  %6 = call i32 (ptr, ...) @pg_printf(ptr noundef @.str.312)
  br label %7

7:                                                ; preds = %5, %4
  ret void
}

; Function Attrs: inlinehint nounwind uwtable
define internal zeroext i1 @is_unixsock_path(ptr noundef %0) #7 {
  %2 = alloca ptr, align 8
  store ptr %0, ptr %2, align 8
  %3 = load ptr, ptr %2, align 8
  %4 = getelementptr inbounds i8, ptr %3, i64 0
  %5 = load i8, ptr %4, align 1
  %6 = sext i8 %5 to i32
  %7 = icmp eq i32 %6, 47
  br i1 %7, label %14, label %8

8:                                                ; preds = %1
  %9 = load ptr, ptr %2, align 8
  %10 = getelementptr inbounds i8, ptr %9, i64 0
  %11 = load i8, ptr %10, align 1
  %12 = sext i8 %11 to i32
  %13 = icmp eq i32 %12, 64
  br label %14

14:                                               ; preds = %8, %1
  %15 = phi i1 [ true, %1 ], [ %13, %8 ]
  ret i1 %15
}

; Function Attrs: nounwind uwtable
define internal i32 @exec_command_conninfo(ptr noundef %0, i1 noundef zeroext %1) #0 {
  %3 = alloca ptr, align 8
  %4 = alloca i8, align 1
  %5 = alloca ptr, align 8
  %6 = alloca ptr, align 8
  %7 = alloca ptr, align 8
  store ptr %0, ptr %3, align 8
  %8 = zext i1 %1 to i8
  store i8 %8, ptr %4, align 1
  %9 = load i8, ptr %4, align 1, !range !4, !noundef !5
  %10 = trunc i8 %9 to i1
  br i1 %10, label %11, label %83

11:                                               ; preds = %2
  call void @llvm.lifetime.start.p0(i64 8, ptr %5) #10
  %12 = load ptr, ptr @pset, align 8
  %13 = call ptr @PQdb(ptr noundef %12)
  store ptr %13, ptr %5, align 8
  %14 = load ptr, ptr %5, align 8
  %15 = icmp eq ptr %14, null
  br i1 %15, label %16, label %18

16:                                               ; preds = %11
  %17 = call i32 (ptr, ...) @pg_printf(ptr noundef @.str.184)
  br label %82

18:                                               ; preds = %11
  call void @llvm.lifetime.start.p0(i64 8, ptr %6) #10
  %19 = load ptr, ptr @pset, align 8
  %20 = call ptr @PQhost(ptr noundef %19)
  store ptr %20, ptr %6, align 8
  call void @llvm.lifetime.start.p0(i64 8, ptr %7) #10
  %21 = load ptr, ptr @pset, align 8
  %22 = call ptr @PQhostaddr(ptr noundef %21)
  store ptr %22, ptr %7, align 8
  %23 = load ptr, ptr %6, align 8
  %24 = call zeroext i1 @is_unixsock_path(ptr noundef %23)
  br i1 %24, label %25, label %50

25:                                               ; preds = %18
  %26 = load ptr, ptr %7, align 8
  %27 = icmp ne ptr %26, null
  br i1 %27, label %28, label %41

28:                                               ; preds = %25
  %29 = load ptr, ptr %7, align 8
  %30 = load i8, ptr %29, align 1
  %31 = sext i8 %30 to i32
  %32 = icmp ne i32 %31, 0
  br i1 %32, label %33, label %41

33:                                               ; preds = %28
  %34 = load ptr, ptr %5, align 8
  %35 = load ptr, ptr @pset, align 8
  %36 = call ptr @PQuser(ptr noundef %35)
  %37 = load ptr, ptr %7, align 8
  %38 = load ptr, ptr @pset, align 8
  %39 = call ptr @PQport(ptr noundef %38)
  %40 = call i32 (ptr, ...) @pg_printf(ptr noundef @.str.185, ptr noundef %34, ptr noundef %36, ptr noundef %37, ptr noundef %39)
  br label %49

41:                                               ; preds = %28, %25
  %42 = load ptr, ptr %5, align 8
  %43 = load ptr, ptr @pset, align 8
  %44 = call ptr @PQuser(ptr noundef %43)
  %45 = load ptr, ptr %6, align 8
  %46 = load ptr, ptr @pset, align 8
  %47 = call ptr @PQport(ptr noundef %46)
  %48 = call i32 (ptr, ...) @pg_printf(ptr noundef @.str.186, ptr noundef %42, ptr noundef %44, ptr noundef %45, ptr noundef %47)
  br label %49

49:                                               ; preds = %41, %33
  br label %81

50:                                               ; preds = %18
  %51 = load ptr, ptr %7, align 8
  %52 = icmp ne ptr %51, null
  br i1 %52, label %53, label %72

53:                                               ; preds = %50
  %54 = load ptr, ptr %7, align 8
  %55 = load i8, ptr %54, align 1
  %56 = sext i8 %55 to i32
  %57 = icmp ne i32 %56, 0
  br i1 %57, label %58, label %72

58:                                               ; preds = %53
  %59 = load ptr, ptr %6, align 8
  %60 = load ptr, ptr %7, align 8
  %61 = call i32 @strcmp(ptr noundef %59, ptr noundef %60) #11
  %62 = icmp ne i32 %61, 0
  br i1 %62, label %63, label %72

63:                                               ; preds = %58
  %64 = load ptr, ptr %5, align 8
  %65 = load ptr, ptr @pset, align 8
  %66 = call ptr @PQuser(ptr noundef %65)
  %67 = load ptr, ptr %6, align 8
  %68 = load ptr, ptr %7, align 8
  %69 = load ptr, ptr @pset, align 8
  %70 = call ptr @PQport(ptr noundef %69)
  %71 = call i32 (ptr, ...) @pg_printf(ptr noundef @.str.187, ptr noundef %64, ptr noundef %66, ptr noundef %67, ptr noundef %68, ptr noundef %70)
  br label %80

72:                                               ; preds = %58, %53, %50
  %73 = load ptr, ptr %5, align 8
  %74 = load ptr, ptr @pset, align 8
  %75 = call ptr @PQuser(ptr noundef %74)
  %76 = load ptr, ptr %6, align 8
  %77 = load ptr, ptr @pset, align 8
  %78 = call ptr @PQport(ptr noundef %77)
  %79 = call i32 (ptr, ...) @pg_printf(ptr noundef @.str.188, ptr noundef %73, ptr noundef %75, ptr noundef %76, ptr noundef %78)
  br label %80

80:                                               ; preds = %72, %63
  br label %81

81:                                               ; preds = %80, %49
  call void @printSSLInfo()
  call void @printGSSInfo()
  call void @llvm.lifetime.end.p0(i64 8, ptr %7) #10
  call void @llvm.lifetime.end.p0(i64 8, ptr %6) #10
  br label %82

82:                                               ; preds = %81, %16
  call void @llvm.lifetime.end.p0(i64 8, ptr %5) #10
  br label %83

83:                                               ; preds = %82, %2
  ret i32 2
}