; Function Attrs: nounwind uwtable
define internal fastcc void @exec_command_conninfo(i1 noundef zeroext %0) unnamed_addr #0 {
  br i1 %0, label %2, label %printGSSInfo.exit

2:                                                ; preds = %1
  %3 = load ptr, ptr @pset, align 8
  %4 = tail call ptr @PQdb(ptr noundef %3) #16
  %5 = icmp eq ptr %4, null
  br i1 %5, label %printGSSInfo.exit.sink.split, label %6

6:                                                ; preds = %2
  %7 = load ptr, ptr @pset, align 8
  %8 = tail call ptr @PQhost(ptr noundef %7) #16
  %9 = load ptr, ptr @pset, align 8
  %10 = tail call ptr @PQhostaddr(ptr noundef %9) #16
  %.val = load i8, ptr %8, align 1
  switch i8 %.val, label %26 [
    i8 64, label %11
    i8 47, label %11
  ]

11:                                               ; preds = %6, %6
  %.not20 = icmp eq ptr %10, null
  br i1 %.not20, label %20, label %12

12:                                               ; preds = %11
  %13 = load i8, ptr %10, align 1
  %.not21 = icmp eq i8 %13, 0
  br i1 %.not21, label %20, label %14

14:                                               ; preds = %12
  %15 = load ptr, ptr @pset, align 8
  %16 = tail call ptr @PQuser(ptr noundef %15) #16
  %17 = load ptr, ptr @pset, align 8
  %18 = tail call ptr @PQport(ptr noundef %17) #16
  %19 = tail call i32 (ptr, ...) @pg_printf(ptr noundef nonnull @.str.185, ptr noundef nonnull %4, ptr noundef %16, ptr noundef nonnull %10, ptr noundef %18) #16
  br label %43

20:                                               ; preds = %12, %11
  %21 = load ptr, ptr @pset, align 8
  %22 = tail call ptr @PQuser(ptr noundef %21) #16
  %23 = load ptr, ptr @pset, align 8
  %24 = tail call ptr @PQport(ptr noundef %23) #16
  %25 = tail call i32 (ptr, ...) @pg_printf(ptr noundef nonnull @.str.186, ptr noundef nonnull %4, ptr noundef %22, ptr noundef nonnull %8, ptr noundef %24) #16
  br label %43

26:                                               ; preds = %6
  %.not = icmp eq ptr %10, null
  br i1 %.not, label %37, label %27

27:                                               ; preds = %26
  %28 = load i8, ptr %10, align 1
  %.not18 = icmp eq i8 %28, 0
  br i1 %.not18, label %37, label %29

29:                                               ; preds = %27
  %30 = tail call i32 @strcmp(ptr noundef nonnull dereferenceable(1) %8, ptr noundef nonnull dereferenceable(1) %10) #17
  %.not19 = icmp eq i32 %30, 0
  br i1 %.not19, label %37, label %31

31:                                               ; preds = %29
  %32 = load ptr, ptr @pset, align 8
  %33 = tail call ptr @PQuser(ptr noundef %32) #16
  %34 = load ptr, ptr @pset, align 8
  %35 = tail call ptr @PQport(ptr noundef %34) #16
  %36 = tail call i32 (ptr, ...) @pg_printf(ptr noundef nonnull @.str.187, ptr noundef nonnull %4, ptr noundef %33, ptr noundef nonnull %8, ptr noundef nonnull %10, ptr noundef %35) #16
  br label %43

37:                                               ; preds = %29, %27, %26
  %38 = load ptr, ptr @pset, align 8
  %39 = tail call ptr @PQuser(ptr noundef %38) #16
  %40 = load ptr, ptr @pset, align 8
  %41 = tail call ptr @PQport(ptr noundef %40) #16
  %42 = tail call i32 (ptr, ...) @pg_printf(ptr noundef nonnull @.str.188, ptr noundef nonnull %4, ptr noundef %39, ptr noundef nonnull %8, ptr noundef %41) #16
  br label %43

43:                                               ; preds = %31, %37, %14, %20
  tail call fastcc void @printSSLInfo()
  %44 = load ptr, ptr @pset, align 8
  %45 = tail call i32 @PQgssEncInUse(ptr noundef %44) #16
  %.not.i = icmp eq i32 %45, 0
  br i1 %.not.i, label %printGSSInfo.exit, label %printGSSInfo.exit.sink.split

printGSSInfo.exit.sink.split:                     ; preds = %43, %2
  %.str.312.sink = phi ptr [ @.str.184, %2 ], [ @.str.312, %43 ]
  %46 = tail call i32 (ptr, ...) @pg_printf(ptr noundef nonnull %.str.312.sink) #16
  br label %printGSSInfo.exit

printGSSInfo.exit:                                ; preds = %printGSSInfo.exit.sink.split, %43, %1
  ret void
}